target datalayout = "e-m:e-p270:32:32-p271:32:32-p272:64:64-i64:64-i128:128-f80:128-n8:16:32:64-S128"
target triple = "x86_64-pc-linux-gnu"

%struct._packet_info = type { ptr, ptr, i32, i32, %struct.nstime_t, %struct.nstime_t, %struct.nstime_t, i8, ptr, ptr, ptr, ptr, %struct._address, %struct._address, %struct._address, %struct._address, %struct._address, %struct._address, i32, ptr, i8, [3 x i8], %struct.anon, i32, i32, i32, i32, ptr, i8, ptr, ptr, i16, i16, i32, i32, i16, i32, i32, ptr, ptr, ptr, i8, i8, i16, i16, i16, i32, i16, i16, ptr, ptr, ptr, ptr, ptr, i32, i32 }
%struct.nstime_t = type { i64, i32 }
%struct._address = type { i32, i32, ptr, ptr }
%struct.anon = type { i8, [3 x i8] }
%struct._xmpp_element_t = type { ptr, ptr, ptr, ptr, ptr, ptr, i32, i32, i8 }
%struct._xmpp_data_t = type { ptr, i32, i32 }

@hf_xmpp_cdata = external global i32, align 4
@.str.16 = private unnamed_addr constant [1 x i8] zeroinitializer, align 1
@.str.18 = private unnamed_addr constant [7 x i8] c"%s: %s\00", align 1

; Function Attrs: null_pointer_is_valid sspstrong uwtable
define internal ptr @xmpp_ep_string_upcase(ptr noundef %0, ptr noundef %1) #0 {
  %3 = alloca ptr, align 8
  %4 = alloca ptr, align 8
  %5 = alloca i32, align 4
  %6 = alloca i32, align 4
  %7 = alloca ptr, align 8
  store ptr %0, ptr %3, align 8
  store ptr %1, ptr %4, align 8
  call void @llvm.lifetime.start.p0(i64 4, ptr %5) #8
  %8 = load ptr, ptr %4, align 8
  %9 = call i64 @strlen(ptr noundef %8) #10
  %10 = trunc i64 %9 to i32
  store i32 %10, ptr %5, align 4
  call void @llvm.lifetime.start.p0(i64 4, ptr %6) #8
  call void @llvm.lifetime.start.p0(i64 8, ptr %7) #8
  %11 = load ptr, ptr %3, align 8
  %12 = load i32, ptr %5, align 4
  %13 = add i32 %12, 1
  %14 = sext i32 %13 to i64
  %15 = call noalias ptr @wmem_alloc0(ptr noundef %11, i64 noundef %14) #9
  store ptr %15, ptr %7, align 8
  store i32 0, ptr %6, align 4
  br label %16

16:                                               ; preds = %55, %2
  %17 = load i32, ptr %6, align 4
  %18 = load i32, ptr %5, align 4
  %19 = icmp slt i32 %17, %18
  br i1 %19, label %20, label %58

20:                                               ; preds = %16
  %21 = load ptr, ptr %4, align 8
  %22 = load i32, ptr %6, align 4
  %23 = sext i32 %22 to i64
  %24 = getelementptr i8, ptr %21, i64 %23
  %25 = load i8, ptr %24, align 1
  %26 = load ptr, ptr %7, align 8
  %27 = load i32, ptr %6, align 4
  %28 = sext i32 %27 to i64
  %29 = getelementptr i8, ptr %26, i64 %28
  store i8 %25, ptr %29, align 1
  %30 = load ptr, ptr %4, align 8
  %31 = load i32, ptr %6, align 4
  %32 = sext i32 %31 to i64
  %33 = getelementptr i8, ptr %30, i64 %32
  %34 = load i8, ptr %33, align 1
  %35 = sext i8 %34 to i32
  %36 = icmp sge i32 %35, 97
  br i1 %36, label %37, label %54

37:                                               ; preds = %20
  %38 = load ptr, ptr %4, align 8
  %39 = load i32, ptr %6, align 4
  %40 = sext i32 %39 to i64
  %41 = getelementptr i8, ptr %38, i64 %40
  %42 = load i8, ptr %41, align 1
  %43 = sext i8 %42 to i32
  %44 = icmp sle i32 %43, 122
  br i1 %44, label %45, label %54

45:                                               ; preds = %37
  %46 = load ptr, ptr %7, align 8
  %47 = load i32, ptr %6, align 4
  %48 = sext i32 %47 to i64
  %49 = getelementptr i8, ptr %46, i64 %48
  %50 = load i8, ptr %49, align 1
  %51 = sext i8 %50 to i32
  %52 = sub i32 %51, 32
  %53 = trunc i32 %52 to i8
  store i8 %53, ptr %49, align 1
  br label %54

54:                                               ; preds = %45, %37, %20
  br label %55

55:                                               ; preds = %54
  %56 = load i32, ptr %6, align 4
  %57 = add i32 %56, 1
  store i32 %57, ptr %6, align 4
  br label %16, !llvm.loop !10

58:                                               ; preds = %16
  %59 = load ptr, ptr %7, align 8
  call void @llvm.lifetime.end.p0(i64 8, ptr %7) #8
  call void @llvm.lifetime.end.p0(i64 4, ptr %6) #8
  call void @llvm.lifetime.end.p0(i64 4, ptr %5) #8
  ret ptr %59
}

; Function Attrs: null_pointer_is_valid sspstrong uwtable
define hidden void @xmpp_simple_cdata_elem(ptr noundef %0, ptr noundef %1, ptr noundef %2, ptr noundef %3) #0 {
  %5 = alloca ptr, align 8
  %6 = alloca ptr, align 8
  %7 = alloca ptr, align 8
  %8 = alloca ptr, align 8
  store ptr %0, ptr %5, align 8
  store ptr %1, ptr %6, align 8
  store ptr %2, ptr %7, align 8
  store ptr %3, ptr %8, align 8
  %9 = load ptr, ptr %5, align 8
  %10 = load i32, ptr @hf_xmpp_cdata, align 4
  %11 = load ptr, ptr %6, align 8
  %12 = load ptr, ptr %8, align 8
  %13 = getelementptr inbounds nuw %struct._xmpp_element_t, ptr %12, i32 0, i32 6
  %14 = load i32, ptr %13, align 8
  %15 = load ptr, ptr %8, align 8
  %16 = getelementptr inbounds nuw %struct._xmpp_element_t, ptr %15, i32 0, i32 7
  %17 = load i32, ptr %16, align 4
  %18 = load ptr, ptr %8, align 8
  %19 = getelementptr inbounds nuw %struct._xmpp_element_t, ptr %18, i32 0, i32 5
  %20 = load ptr, ptr %19, align 8
  %21 = icmp ne ptr %20, null
  br i1 %21, label %22, label %28

22:                                               ; preds = %4
  %23 = load ptr, ptr %8, align 8
  %24 = getelementptr inbounds nuw %struct._xmpp_element_t, ptr %23, i32 0, i32 5
  %25 = load ptr, ptr %24, align 8
  %26 = getelementptr inbounds nuw %struct._xmpp_data_t, ptr %25, i32 0, i32 0
  %27 = load ptr, ptr %26, align 8
  br label %29

28:                                               ; preds = %4
  br label %29

29:                                               ; preds = %28, %22
  %30 = phi ptr [ %27, %22 ], [ @.str.16, %28 ]
  %31 = load ptr, ptr %7, align 8
  %32 = getelementptr inbounds nuw %struct._packet_info, ptr %31, i32 0, i32 51
  %33 = load ptr, ptr %32, align 8
  %34 = load ptr, ptr %8, align 8
  %35 = getelementptr inbounds nuw %struct._xmpp_element_t, ptr %34, i32 0, i32 0
  %36 = load ptr, ptr %35, align 8
  %37 = call ptr @xmpp_ep_string_upcase(ptr noundef %33, ptr noundef %36)
  %38 = load ptr, ptr %8, align 8
  %39 = getelementptr inbounds nuw %struct._xmpp_element_t, ptr %38, i32 0, i32 5
  %40 = load ptr, ptr %39, align 8
  %41 = icmp ne ptr %40, null
  br i1 %41, label %42, label %48

42:                                               ; preds = %29
  %43 = load ptr, ptr %8, align 8
  %44 = getelementptr inbounds nuw %struct._xmpp_element_t, ptr %43, i32 0, i32 5
  %45 = load ptr, ptr %44, align 8
  %46 = getelementptr inbounds nuw %struct._xmpp_data_t, ptr %45, i32 0, i32 0
  %47 = load ptr, ptr %46, align 8
  br label %49

48:                                               ; preds = %29
  br label %49

49:                                               ; preds = %48, %42
  %50 = phi ptr [ %47, %42 ], [ @.str.16, %48 ]
  %51 = call ptr (ptr, i32, ptr, i32, i32, ptr, ptr, ...) @proto_tree_add_string_format(ptr noundef %9, i32 noundef %10, ptr noundef %11, i32 noundef %14, i32 noundef %17, ptr noundef %30, ptr noundef @.str.18, ptr noundef %37, ptr noundef %50)
  ret void
}