; Function Attrs: null_pointer_is_valid sspstrong uwtable
define hidden void @xmpp_simple_cdata_elem(ptr noundef %0, ptr noundef %1, ptr noundef readonly captures(none) %2, ptr noundef readonly captures(none) %3) local_unnamed_addr #0 {
  %5 = load i32, ptr @hf_xmpp_cdata, align 4
  %6 = getelementptr inbounds nuw i8, ptr %3, i64 48
  %7 = load i32, ptr %6, align 8
  %8 = getelementptr inbounds nuw i8, ptr %3, i64 52
  %9 = load i32, ptr %8, align 4
  %10 = getelementptr inbounds nuw i8, ptr %3, i64 40
  %11 = load ptr, ptr %10, align 8
  %.not = icmp eq ptr %11, null
  br i1 %.not, label %14, label %12

12:                                               ; preds = %4
  %13 = load ptr, ptr %11, align 8
  br label %14

14:                                               ; preds = %4, %12
  %15 = phi ptr [ %13, %12 ], [ @.str.16, %4 ]
  %16 = getelementptr inbounds nuw i8, ptr %2, i64 408
  %17 = load ptr, ptr %16, align 8
  %18 = load ptr, ptr %3, align 8
  %19 = tail call i64 @strlen(ptr noundef readonly %18) #11
  %20 = trunc i64 %19 to i32
  %21 = shl i64 %19, 32
  %sext.i = add i64 %21, 4294967296
  %22 = ashr exact i64 %sext.i, 32
  %23 = tail call noalias ptr @wmem_alloc0(ptr noundef %17, i64 noundef %22) #10
  %24 = icmp sgt i32 %20, 0
  br i1 %24, label %.lr.ph.preheader.i, label %xmpp_ep_string_upcase.exit

.lr.ph.preheader.i:                               ; preds = %14
  %wide.trip.count.i = and i64 %19, 2147483647
  br label %.lr.ph.i

.lr.ph.i:                                         ; preds = %.lr.ph.i, %.lr.ph.preheader.i
  %indvars.iv.i = phi i64 [ 0, %.lr.ph.preheader.i ], [ %indvars.iv.next.i, %.lr.ph.i ]
  %25 = getelementptr i8, ptr %18, i64 %indvars.iv.i
  %26 = load i8, ptr %25, align 1
  %27 = getelementptr i8, ptr %23, i64 %indvars.iv.i
  %28 = add i8 %26, -97
  %or.cond.i = icmp ult i8 %28, 26
  %29 = add nsw i8 %26, -32
  %spec.select.i = select i1 %or.cond.i, i8 %29, i8 %26
  store i8 %spec.select.i, ptr %27, align 1
  %indvars.iv.next.i = add nuw nsw i64 %indvars.iv.i, 1
  %exitcond.not.i = icmp eq i64 %indvars.iv.next.i, %wide.trip.count.i
  br i1 %exitcond.not.i, label %xmpp_ep_string_upcase.exit, label %.lr.ph.i, !llvm.loop !8

xmpp_ep_string_upcase.exit:                       ; preds = %.lr.ph.i, %14
  %30 = load ptr, ptr %10, align 8
  %.not11 = icmp eq ptr %30, null
  br i1 %.not11, label %33, label %31

31:                                               ; preds = %xmpp_ep_string_upcase.exit
  %32 = load ptr, ptr %30, align 8
  br label %33

33:                                               ; preds = %xmpp_ep_string_upcase.exit, %31
  %34 = phi ptr [ %32, %31 ], [ @.str.16, %xmpp_ep_string_upcase.exit ]
  %35 = tail call ptr (ptr, i32, ptr, i32, i32, ptr, ptr, ...) @proto_tree_add_string_format(ptr noundef %0, i32 noundef %5, ptr noundef %1, i32 noundef %7, i32 noundef %9, ptr noundef %15, ptr noundef nonnull @.str.18, ptr noundef %23, ptr noundef %34)
  ret void
}